; Function Attrs: nounwind uwtable
define range(i32 -12, 1) i32 @ff_decode_mastering_display_new_ext(ptr noundef readonly captures(none) %0, ptr noundef %1, ptr noundef %2, ptr noundef initializes((0, 8)) %3) local_unnamed_addr #0 {
  %5 = alloca ptr, align 8
  %6 = alloca i64, align 8
  call void @llvm.lifetime.start.p0(i64 8, ptr nonnull %5) #10
  call void @llvm.lifetime.start.p0(i64 8, ptr nonnull %6) #10
  %7 = getelementptr i8, ptr %0, i64 40
  %.val = load ptr, ptr %7, align 8, !tbaa !4
  %8 = load ptr, ptr %1, align 8, !tbaa !272
  %9 = load i32, ptr %2, align 4, !tbaa !69
  %10 = tail call ptr @av_frame_side_data_get_c(ptr noundef %8, i32 noundef %9, i32 noundef 11) #10
  %.not.i = icmp eq ptr %10, null
  br i1 %.not.i, label %16, label %11

11:                                               ; preds = %4
  %12 = getelementptr inbounds nuw i8, ptr %.val, i64 200
  %13 = load i64, ptr %12, align 8, !tbaa !262
  %14 = and i64 %13, 2048
  %.not9.i = icmp eq i64 %14, 0
  br i1 %.not9.i, label %15, label %side_data_pref.exit

15:                                               ; preds = %11
  tail call void @av_frame_side_data_remove(ptr noundef nonnull %1, ptr noundef nonnull %2, i32 noundef 11) #10
  br label %16

side_data_pref.exit:                              ; preds = %11
  store ptr null, ptr %3, align 8, !tbaa !273
  br label %25

16:                                               ; preds = %15, %4
  %17 = call ptr @av_mastering_display_metadata_alloc_size(ptr noundef nonnull %6) #10
  store ptr %17, ptr %3, align 8, !tbaa !273
  %.not12 = icmp eq ptr %17, null
  br i1 %.not12, label %25, label %18

18:                                               ; preds = %16
  %19 = load i64, ptr %6, align 8, !tbaa !43
  %20 = call ptr @av_buffer_create(ptr noundef nonnull %17, i64 noundef %19, ptr noundef null, ptr noundef null, i32 noundef 0) #10
  store ptr %20, ptr %5, align 8, !tbaa !56
  %.not13 = icmp eq ptr %20, null
  br i1 %.not13, label %21, label %22

21:                                               ; preds = %18
  call void @av_freep(ptr noundef nonnull %3) #10
  br label %25

22:                                               ; preds = %18
  %23 = call ptr @av_frame_side_data_add(ptr noundef nonnull %1, ptr noundef nonnull %2, i32 noundef 11, ptr noundef nonnull %5, i32 noundef 0) #10
  %.not14 = icmp eq ptr %23, null
  br i1 %.not14, label %24, label %25

24:                                               ; preds = %22
  store ptr null, ptr %3, align 8, !tbaa !273
  call void @av_buffer_unref(ptr noundef nonnull %5) #10
  br label %25

25:                                               ; preds = %22, %16, %24, %21, %side_data_pref.exit
  %.0 = phi i32 [ 0, %side_data_pref.exit ], [ -12, %24 ], [ -12, %21 ], [ -12, %16 ], [ 0, %22 ]
  call void @llvm.lifetime.end.p0(i64 8, ptr nonnull %6) #10
  call void @llvm.lifetime.end.p0(i64 8, ptr nonnull %5) #10
  ret i32 %.0
}